cautonose.shared.state
FileSystemState
p0
(I1
(dp1
S'test_pandora.py'
p2
ccopy_reg
_reconstructor
p3
(cautonose.shared.file_state
FileState
p4
c__builtin__
object
p5
Ntp6
Rp7
(dp8
S'modtime'
p9
F1344683998.0
sS'_test_results'
p10
g3
(cautonose.shared.test_result
TestResultSet
p11
g5
Ntp12
Rp13
(dp14
S'results'
p15
(lp16
g3
(cautonose.shared.test_result
TestResult
p17
g5
Ntp18
Rp19
(dp20
S'name'
p21
S'Pandora.test_pandora.test_sample'
p22
sS'outputs'
p23
(lp24
(S'traceback'
p25
(S'NameError'
p26
S"global name 'Pandora' is not defined"
p27
(lp28
(S'/Library/Python/2.7/site-packages/nose/case.py'
p29
I197
S'runTest'
p30
S'self.test(*self.arg)'
p31
tp32
a(S'/Users/nickpeters/Programming/Pandora/test_pandora.py'
p33
I4
S'test_sample'
p34
S'p = Pandora([])'
p35
tp36
atp37
tp38
a(S'stdout'
p39
S''
p40
tp41
a(S'logging'
p42
(lp43
tp44
asS'address'
p45
(S'/Users/nickpeters/Programming/Pandora/test_pandora.py'
p46
S'Pandora.test_pandora'
p47
g34
tp48
sS'state'
p49
S'error'
p50
sS'attrs'
p51
(lp52
S'id'
p53
aS'state'
p54
aS'name'
p55
aS'time'
p56
aS'path'
p57
aS'address'
p58
asS'time'
p59
F1344684098.067538
sS'path'
p60
S'test_pandora.py'
p61
sS'id'
p62
S'Pandora.test_pandora.test_sample'
p63
sbasbsS'dependencies'
p64
(lp65
S'pandora.py'
p66
asg60
g2
sbsS'pandora/__init__.py'
p67
g3
(g4
g5
Ntp68
Rp69
(dp70
g9
F1344684259.0
sg10
g3
(g11
g5
Ntp71
Rp72
(dp73
g15
(lp74
sbsg64
(lp75
sg60
g67
sbsS'test/test_pandora.py'
p76
g3
(g4
g5
Ntp77
Rp78
(dp79
g9
F1344956020.0
sg10
g3
(g11
g5
Ntp80
Rp81
(dp82
g15
(lp83
g3
(g17
g5
Ntp84
Rp85
(dp86
g21
S'test.test_pandora.test_sample'
p87
sg23
(lp88
(S'stdout'
p89
Ntp90
asg45
(S'/Users/nickpeters/Programming/Pandora/test/test_pandora.py'
p91
S'test.test_pandora'
p92
S'test_sample'
p93
tp94
sg49
S'success'
p95
sg51
(lp96
S'id'
p97
aS'state'
p98
aS'name'
p99
aS'time'
p100
aS'path'
p101
aS'address'
p102
asg59
F1344968633.062538
sg60
S'test/test_pandora.py'
p103
sg62
S'test.test_pandora.test_sample'
p104
sbasbsg64
(lp105
sg60
g76
sbsS'pandora.py'
p106
g3
(g4
g5
Ntp107
Rp108
(dp109
g9
F1344970058.0
sg10
g3
(g11
g5
Ntp110
Rp111
(dp112
g15
(lp113
sbsg64
(lp114
sg60
g106
sbsS'test/__init__.py'
p115
g3
(g4
g5
Ntp116
Rp117
(dp118
g9
F1344684098.0
sg10
g3
(g11
g5
Ntp119
Rp120
(dp121
g15
(lp122
sbsg64
(lp123
sg60
g115
sbsS'pandora/box.py'
p124
g3
(g4
g5
Ntp125
Rp126
(dp127
g9
F1344696050.0
sg10
g3
(g11
g5
Ntp128
Rp129
(dp130
g15
(lp131
sbsg64
(lp132
sg60
g124
sbsS'__init__.py'
p133
g3
(g4
g5
Ntp134
Rp135
(dp136
g9
F1344684098.0
sg10
g3
(g11
g5
Ntp137
Rp138
(dp139
g15
(lp140
sbsg64
(lp141
sg60
g133
sbstp142
Rp143
.